target datalayout = "e-m:e-p270:32:32-p271:32:32-p272:64:64-i64:64-i128:128-f80:128-n8:16:32:64-S128"
target triple = "x86_64-pc-linux-gnu"

%"struct.faiss::nndescent::Neighbor" = type <{ i32, float, i8, [3 x i8] }>

; Function Attrs: mustprogress nounwind uwtable
define noundef i32 @_ZN5faiss9nndescent16insert_into_poolEPNS0_8NeighborEiS1_(ptr noundef %0, i32 noundef %1, i64 %2, i8 %3) #1 {
  %5 = alloca i32, align 4
  %6 = alloca %"struct.faiss::nndescent::Neighbor", align 4
  %7 = alloca { i64, i8 }, align 4
  %8 = alloca ptr, align 8
  %9 = alloca i32, align 4
  %10 = alloca i32, align 4
  %11 = alloca i32, align 4
  %12 = alloca i32, align 4
  %13 = alloca i32, align 4
  %14 = getelementptr inbounds nuw { i64, i8 }, ptr %7, i32 0, i32 0
  store i64 %2, ptr %14, align 4
  %15 = getelementptr inbounds nuw { i64, i8 }, ptr %7, i32 0, i32 1
  store i8 %3, ptr %15, align 4
  call void @llvm.memcpy.p0.p0.i64(ptr align 4 %6, ptr align 4 %7, i64 12, i1 false)
  store ptr %0, ptr %8, align 8, !tbaa !79
  store i32 %1, ptr %9, align 4, !tbaa !9
  call void @llvm.lifetime.start.p0(i64 4, ptr %10) #16
  store i32 0, ptr %10, align 4, !tbaa !9
  call void @llvm.lifetime.start.p0(i64 4, ptr %11) #16
  %16 = load i32, ptr %9, align 4, !tbaa !9
  %17 = sub nsw i32 %16, 1
  store i32 %17, ptr %11, align 4, !tbaa !9
  %18 = load ptr, ptr %8, align 8, !tbaa !79
  %19 = load i32, ptr %10, align 4, !tbaa !9
  %20 = sext i32 %19 to i64
  %21 = getelementptr inbounds %"struct.faiss::nndescent::Neighbor", ptr %18, i64 %20
  %22 = getelementptr inbounds nuw %"struct.faiss::nndescent::Neighbor", ptr %21, i32 0, i32 1
  %23 = load float, ptr %22, align 4, !tbaa !98
  %24 = getelementptr inbounds nuw %"struct.faiss::nndescent::Neighbor", ptr %6, i32 0, i32 1
  %25 = load float, ptr %24, align 4, !tbaa !98
  %26 = fcmp ogt float %23, %25
  br i1 %26, label %27, label %45

27:                                               ; preds = %4
  %28 = load ptr, ptr %8, align 8, !tbaa !79
  %29 = load i32, ptr %10, align 4, !tbaa !9
  %30 = add nsw i32 %29, 1
  %31 = sext i32 %30 to i64
  %32 = getelementptr inbounds %"struct.faiss::nndescent::Neighbor", ptr %28, i64 %31
  %33 = load ptr, ptr %8, align 8, !tbaa !79
  %34 = load i32, ptr %10, align 4, !tbaa !9
  %35 = sext i32 %34 to i64
  %36 = getelementptr inbounds %"struct.faiss::nndescent::Neighbor", ptr %33, i64 %35
  %37 = load i32, ptr %9, align 4, !tbaa !9
  %38 = sext i32 %37 to i64
  %39 = mul i64 %38, 12
  call void @llvm.memmove.p0.p0.i64(ptr align 1 %32, ptr align 4 %36, i64 %39, i1 false)
  %40 = load ptr, ptr %8, align 8, !tbaa !79
  %41 = load i32, ptr %10, align 4, !tbaa !9
  %42 = sext i32 %41 to i64
  %43 = getelementptr inbounds %"struct.faiss::nndescent::Neighbor", ptr %40, i64 %42
  call void @llvm.memcpy.p0.p0.i64(ptr align 4 %43, ptr align 4 %6, i64 9, i1 false), !tbaa.struct !102
  %44 = load i32, ptr %10, align 4, !tbaa !9
  store i32 %44, ptr %5, align 4
  store i32 1, ptr %12, align 4
  br label %160

45:                                               ; preds = %4
  %46 = load ptr, ptr %8, align 8, !tbaa !79
  %47 = load i32, ptr %11, align 4, !tbaa !9
  %48 = sext i32 %47 to i64
  %49 = getelementptr inbounds %"struct.faiss::nndescent::Neighbor", ptr %46, i64 %48
  %50 = getelementptr inbounds nuw %"struct.faiss::nndescent::Neighbor", ptr %49, i32 0, i32 1
  %51 = load float, ptr %50, align 4, !tbaa !98
  %52 = getelementptr inbounds nuw %"struct.faiss::nndescent::Neighbor", ptr %6, i32 0, i32 1
  %53 = load float, ptr %52, align 4, !tbaa !98
  %54 = fcmp olt float %51, %53
  br i1 %54, label %55, label %61

55:                                               ; preds = %45
  %56 = load ptr, ptr %8, align 8, !tbaa !79
  %57 = load i32, ptr %9, align 4, !tbaa !9
  %58 = sext i32 %57 to i64
  %59 = getelementptr inbounds %"struct.faiss::nndescent::Neighbor", ptr %56, i64 %58
  call void @llvm.memcpy.p0.p0.i64(ptr align 4 %59, ptr align 4 %6, i64 9, i1 false), !tbaa.struct !102
  %60 = load i32, ptr %9, align 4, !tbaa !9
  store i32 %60, ptr %5, align 4
  store i32 1, ptr %12, align 4
  br label %160

61:                                               ; preds = %45
  br label %62

62:                                               ; preds = %85, %61
  %63 = load i32, ptr %10, align 4, !tbaa !9
  %64 = load i32, ptr %11, align 4, !tbaa !9
  %65 = sub nsw i32 %64, 1
  %66 = icmp slt i32 %63, %65
  br i1 %66, label %67, label %86

67:                                               ; preds = %62
  call void @llvm.lifetime.start.p0(i64 4, ptr %13) #16
  %68 = load i32, ptr %10, align 4, !tbaa !9
  %69 = load i32, ptr %11, align 4, !tbaa !9
  %70 = add nsw i32 %68, %69
  %71 = sdiv i32 %70, 2
  store i32 %71, ptr %13, align 4, !tbaa !9
  %72 = load ptr, ptr %8, align 8, !tbaa !79
  %73 = load i32, ptr %13, align 4, !tbaa !9
  %74 = sext i32 %73 to i64
  %75 = getelementptr inbounds %"struct.faiss::nndescent::Neighbor", ptr %72, i64 %74
  %76 = getelementptr inbounds nuw %"struct.faiss::nndescent::Neighbor", ptr %75, i32 0, i32 1
  %77 = load float, ptr %76, align 4, !tbaa !98
  %78 = getelementptr inbounds nuw %"struct.faiss::nndescent::Neighbor", ptr %6, i32 0, i32 1
  %79 = load float, ptr %78, align 4, !tbaa !98
  %80 = fcmp ogt float %77, %79
  br i1 %80, label %81, label %83

81:                                               ; preds = %67
  %82 = load i32, ptr %13, align 4, !tbaa !9
  store i32 %82, ptr %11, align 4, !tbaa !9
  br label %85

83:                                               ; preds = %67
  %84 = load i32, ptr %13, align 4, !tbaa !9
  store i32 %84, ptr %10, align 4, !tbaa !9
  br label %85

85:                                               ; preds = %83, %81
  call void @llvm.lifetime.end.p0(i64 4, ptr %13) #16
  br label %62, !llvm.loop !141

86:                                               ; preds = %62
  br label %87

87:                                               ; preds = %114, %86
  %88 = load i32, ptr %10, align 4, !tbaa !9
  %89 = icmp sgt i32 %88, 0
  br i1 %89, label %90, label %117

90:                                               ; preds = %87
  %91 = load ptr, ptr %8, align 8, !tbaa !79
  %92 = load i32, ptr %10, align 4, !tbaa !9
  %93 = sext i32 %92 to i64
  %94 = getelementptr inbounds %"struct.faiss::nndescent::Neighbor", ptr %91, i64 %93
  %95 = getelementptr inbounds nuw %"struct.faiss::nndescent::Neighbor", ptr %94, i32 0, i32 1
  %96 = load float, ptr %95, align 4, !tbaa !98
  %97 = getelementptr inbounds nuw %"struct.faiss::nndescent::Neighbor", ptr %6, i32 0, i32 1
  %98 = load float, ptr %97, align 4, !tbaa !98
  %99 = fcmp olt float %96, %98
  br i1 %99, label %100, label %101

100:                                              ; preds = %90
  br label %117

101:                                              ; preds = %90
  %102 = load ptr, ptr %8, align 8, !tbaa !79
  %103 = load i32, ptr %10, align 4, !tbaa !9
  %104 = sext i32 %103 to i64
  %105 = getelementptr inbounds %"struct.faiss::nndescent::Neighbor", ptr %102, i64 %104
  %106 = getelementptr inbounds nuw %"struct.faiss::nndescent::Neighbor", ptr %105, i32 0, i32 0
  %107 = load i32, ptr %106, align 4, !tbaa !100
  %108 = getelementptr inbounds nuw %"struct.faiss::nndescent::Neighbor", ptr %6, i32 0, i32 0
  %109 = load i32, ptr %108, align 4, !tbaa !100
  %110 = icmp eq i32 %107, %109
  br i1 %110, label %111, label %114

111:                                              ; preds = %101
  %112 = load i32, ptr %9, align 4, !tbaa !9
  %113 = add nsw i32 %112, 1
  store i32 %113, ptr %5, align 4
  store i32 1, ptr %12, align 4
  br label %160

114:                                              ; preds = %101
  %115 = load i32, ptr %10, align 4, !tbaa !9
  %116 = add nsw i32 %115, -1
  store i32 %116, ptr %10, align 4, !tbaa !9
  br label %87, !llvm.loop !142

117:                                              ; preds = %100, %87
  %118 = load ptr, ptr %8, align 8, !tbaa !79
  %119 = load i32, ptr %10, align 4, !tbaa !9
  %120 = sext i32 %119 to i64
  %121 = getelementptr inbounds %"struct.faiss::nndescent::Neighbor", ptr %118, i64 %120
  %122 = getelementptr inbounds nuw %"struct.faiss::nndescent::Neighbor", ptr %121, i32 0, i32 0
  %123 = load i32, ptr %122, align 4, !tbaa !100
  %124 = getelementptr inbounds nuw %"struct.faiss::nndescent::Neighbor", ptr %6, i32 0, i32 0
  %125 = load i32, ptr %124, align 4, !tbaa !100
  %126 = icmp eq i32 %123, %125
  br i1 %126, label %137, label %127

127:                                              ; preds = %117
  %128 = load ptr, ptr %8, align 8, !tbaa !79
  %129 = load i32, ptr %11, align 4, !tbaa !9
  %130 = sext i32 %129 to i64
  %131 = getelementptr inbounds %"struct.faiss::nndescent::Neighbor", ptr %128, i64 %130
  %132 = getelementptr inbounds nuw %"struct.faiss::nndescent::Neighbor", ptr %131, i32 0, i32 0
  %133 = load i32, ptr %132, align 4, !tbaa !100
  %134 = getelementptr inbounds nuw %"struct.faiss::nndescent::Neighbor", ptr %6, i32 0, i32 0
  %135 = load i32, ptr %134, align 4, !tbaa !100
  %136 = icmp eq i32 %133, %135
  br i1 %136, label %137, label %140

137:                                              ; preds = %127, %117
  %138 = load i32, ptr %9, align 4, !tbaa !9
  %139 = add nsw i32 %138, 1
  store i32 %139, ptr %5, align 4
  store i32 1, ptr %12, align 4
  br label %160

140:                                              ; preds = %127
  %141 = load ptr, ptr %8, align 8, !tbaa !79
  %142 = load i32, ptr %11, align 4, !tbaa !9
  %143 = add nsw i32 %142, 1
  %144 = sext i32 %143 to i64
  %145 = getelementptr inbounds %"struct.faiss::nndescent::Neighbor", ptr %141, i64 %144
  %146 = load ptr, ptr %8, align 8, !tbaa !79
  %147 = load i32, ptr %11, align 4, !tbaa !9
  %148 = sext i32 %147 to i64
  %149 = getelementptr inbounds %"struct.faiss::nndescent::Neighbor", ptr %146, i64 %148
  %150 = load i32, ptr %9, align 4, !tbaa !9
  %151 = load i32, ptr %11, align 4, !tbaa !9
  %152 = sub nsw i32 %150, %151
  %153 = sext i32 %152 to i64
  %154 = mul i64 %153, 12
  call void @llvm.memmove.p0.p0.i64(ptr align 1 %145, ptr align 4 %149, i64 %154, i1 false)
  %155 = load ptr, ptr %8, align 8, !tbaa !79
  %156 = load i32, ptr %11, align 4, !tbaa !9
  %157 = sext i32 %156 to i64
  %158 = getelementptr inbounds %"struct.faiss::nndescent::Neighbor", ptr %155, i64 %157
  call void @llvm.memcpy.p0.p0.i64(ptr align 4 %158, ptr align 4 %6, i64 9, i1 false), !tbaa.struct !102
  %159 = load i32, ptr %11, align 4, !tbaa !9
  store i32 %159, ptr %5, align 4
  store i32 1, ptr %12, align 4
  br label %160

160:                                              ; preds = %140, %137, %111, %55, %27
  call void @llvm.lifetime.end.p0(i64 4, ptr %11) #16
  call void @llvm.lifetime.end.p0(i64 4, ptr %10) #16
  %161 = load i32, ptr %5, align 4
  ret i32 %161
}