; Function Attrs: mustprogress nofree norecurse nosync nounwind memory(argmem: readwrite) uwtable
define noundef i32 @_ZN5faiss9nndescent16insert_into_poolEPNS0_8NeighborEiS1_(ptr noundef captures(none) %0, i32 noundef %1, i64 %2, i8 %3) local_unnamed_addr #11 {
  %.sroa.0.sroa.0.0.extract.trunc = trunc i64 %2 to i32
  %.sroa.0.sroa.2.0.extract.shift = lshr i64 %2, 32
  %.sroa.0.sroa.2.0.extract.trunc = trunc nuw i64 %.sroa.0.sroa.2.0.extract.shift to i32
  %5 = bitcast i32 %.sroa.0.sroa.2.0.extract.trunc to float
  %6 = getelementptr inbounds nuw i8, ptr %0, i64 4
  %7 = load float, ptr %6, align 4, !tbaa !39
  %8 = fcmp ogt float %7, %5
  br i1 %8, label %9, label %13

9:                                                ; preds = %4
  %10 = getelementptr inbounds nuw i8, ptr %0, i64 12
  %11 = sext i32 %1 to i64
  %12 = mul nsw i64 %11, 12
  tail call void @llvm.memmove.p0.p0.i64(ptr nonnull align 1 %10, ptr nonnull align 4 %0, i64 %12, i1 false)
  store i32 %.sroa.0.sroa.0.0.extract.trunc, ptr %0, align 4, !tbaa !27
  store i32 %.sroa.0.sroa.2.0.extract.trunc, ptr %6, align 4, !tbaa !45
  %.sroa.12.0..sroa_idx = getelementptr inbounds nuw i8, ptr %0, i64 8
  store i8 %3, ptr %.sroa.12.0..sroa_idx, align 4, !tbaa !46
  br label %61

13:                                               ; preds = %4
  %14 = add nsw i32 %1, -1
  %15 = sext i32 %14 to i64
  %16 = getelementptr inbounds %"struct.faiss::nndescent::Neighbor", ptr %0, i64 %15, i32 1
  %17 = load float, ptr %16, align 4, !tbaa !39
  %18 = fcmp olt float %17, %5
  br i1 %18, label %20, label %.preheader68

.preheader68:                                     ; preds = %13
  %19 = icmp sgt i32 %1, 2
  br i1 %19, label %.lr.ph, label %._crit_edge

20:                                               ; preds = %13
  %21 = sext i32 %1 to i64
  %22 = getelementptr inbounds %"struct.faiss::nndescent::Neighbor", ptr %0, i64 %21
  store i32 %.sroa.0.sroa.0.0.extract.trunc, ptr %22, align 4, !tbaa !27
  %.sroa.7.0..sroa_idx51 = getelementptr inbounds nuw i8, ptr %22, i64 4
  store i32 %.sroa.0.sroa.2.0.extract.trunc, ptr %.sroa.7.0..sroa_idx51, align 4, !tbaa !45
  %.sroa.12.0..sroa_idx58 = getelementptr inbounds nuw i8, ptr %22, i64 8
  store i8 %3, ptr %.sroa.12.0..sroa_idx58, align 4, !tbaa !46
  br label %61

.preheader:                                       ; preds = %.lr.ph
  %23 = icmp sgt i32 %.064., 0
  br i1 %23, label %.lr.ph74, label %._crit_edge

.lr.ph:                                           ; preds = %.preheader68, %.lr.ph
  %.06371 = phi i32 [ %..063, %.lr.ph ], [ %14, %.preheader68 ]
  %.06470 = phi i32 [ %.064., %.lr.ph ], [ 0, %.preheader68 ]
  %24 = add nsw i32 %.06371, %.06470
  %25 = sdiv i32 %24, 2
  %26 = sext i32 %25 to i64
  %27 = getelementptr inbounds %"struct.faiss::nndescent::Neighbor", ptr %0, i64 %26, i32 1
  %28 = load float, ptr %27, align 4, !tbaa !39
  %29 = fcmp ogt float %28, %5
  %.064. = select i1 %29, i32 %.06470, i32 %25
  %..063 = select i1 %29, i32 %25, i32 %.06371
  %30 = add nsw i32 %..063, -1
  %31 = icmp slt i32 %.064., %30
  br i1 %31, label %.lr.ph, label %.preheader, !llvm.loop !65

.lr.ph74:                                         ; preds = %.preheader, %42
  %.273 = phi i32 [ %43, %42 ], [ %.064., %.preheader ]
  %32 = zext nneg i32 %.273 to i64
  %33 = getelementptr inbounds nuw %"struct.faiss::nndescent::Neighbor", ptr %0, i64 %32
  %34 = getelementptr inbounds nuw i8, ptr %33, i64 4
  %35 = load float, ptr %34, align 4, !tbaa !39
  %36 = fcmp olt float %35, %5
  br i1 %36, label %._crit_edge, label %37

37:                                               ; preds = %.lr.ph74
  %38 = load i32, ptr %33, align 4, !tbaa !44
  %39 = icmp eq i32 %38, %.sroa.0.sroa.0.0.extract.trunc
  br i1 %39, label %40, label %42

40:                                               ; preds = %37
  %41 = add nuw nsw i32 %1, 1
  br label %61

42:                                               ; preds = %37
  %43 = add nsw i32 %.273, -1
  %44 = icmp sgt i32 %.273, 1
  br i1 %44, label %.lr.ph74, label %._crit_edge, !llvm.loop !66

._crit_edge:                                      ; preds = %42, %.lr.ph74, %.preheader68, %.preheader
  %.063.lcssa80 = phi i32 [ %..063, %.preheader ], [ %14, %.preheader68 ], [ %..063, %.lr.ph74 ], [ %..063, %42 ]
  %.2.lcssa = phi i32 [ %.064., %.preheader ], [ 0, %.preheader68 ], [ 0, %42 ], [ %.273, %.lr.ph74 ]
  %45 = sext i32 %.2.lcssa to i64
  %46 = getelementptr inbounds %"struct.faiss::nndescent::Neighbor", ptr %0, i64 %45
  %47 = load i32, ptr %46, align 4, !tbaa !44
  %48 = icmp eq i32 %47, %.sroa.0.sroa.0.0.extract.trunc
  br i1 %48, label %54, label %49

49:                                               ; preds = %._crit_edge
  %50 = sext i32 %.063.lcssa80 to i64
  %51 = getelementptr inbounds %"struct.faiss::nndescent::Neighbor", ptr %0, i64 %50
  %52 = load i32, ptr %51, align 4, !tbaa !44
  %53 = icmp eq i32 %52, %.sroa.0.sroa.0.0.extract.trunc
  br i1 %53, label %54, label %56

54:                                               ; preds = %49, %._crit_edge
  %55 = add nsw i32 %1, 1
  br label %61

56:                                               ; preds = %49
  %57 = getelementptr i8, ptr %51, i64 12
  %58 = sub nsw i32 %1, %.063.lcssa80
  %59 = sext i32 %58 to i64
  %60 = mul nsw i64 %59, 12
  tail call void @llvm.memmove.p0.p0.i64(ptr align 1 %57, ptr nonnull align 4 %51, i64 %60, i1 false)
  store i32 %.sroa.0.sroa.0.0.extract.trunc, ptr %51, align 4, !tbaa !27
  %.sroa.7.0..sroa_idx53 = getelementptr inbounds nuw i8, ptr %51, i64 4
  store i32 %.sroa.0.sroa.2.0.extract.trunc, ptr %.sroa.7.0..sroa_idx53, align 4, !tbaa !45
  %.sroa.12.0..sroa_idx60 = getelementptr inbounds nuw i8, ptr %51, i64 8
  store i8 %3, ptr %.sroa.12.0..sroa_idx60, align 4, !tbaa !46
  br label %61

61:                                               ; preds = %56, %54, %40, %20, %9
  %.0 = phi i32 [ 0, %9 ], [ %1, %20 ], [ %55, %54 ], [ %.063.lcssa80, %56 ], [ %41, %40 ]
  ret i32 %.0
}